target datalayout = "e-m:e-p270:32:32-p271:32:32-p272:64:64-i64:64-i128:128-f80:128-n8:16:32:64-S128"
target triple = "x86_64-pc-linux-gnu"

%struct.GCtab = type { %struct.GCRef, i8, i8, i8, i8, %struct.MRef, %struct.GCRef, %struct.GCRef, %struct.MRef, i32, i32, %struct.MRef }
%struct.GCRef = type { i64 }
%struct.MRef = type { i64 }
%union.TValue = type { i64 }

; Function Attrs: nounwind uwtable
define hidden void @lj_serialize_dict_prep_str(ptr noundef %0, ptr noundef %1) #0 {
  %3 = alloca ptr, align 8
  %4 = alloca ptr, align 8
  %5 = alloca i32, align 4
  %6 = alloca i32, align 4
  %7 = alloca i32, align 4
  %8 = alloca ptr, align 8
  store ptr %0, ptr %3, align 8, !tbaa !4
  store ptr %1, ptr %4, align 8, !tbaa !9
  %9 = load ptr, ptr %4, align 8, !tbaa !9
  %10 = getelementptr inbounds nuw %struct.GCtab, ptr %9, i32 0, i32 10
  %11 = load i32, ptr %10, align 4, !tbaa !11
  %12 = icmp ne i32 %11, 0
  br i1 %12, label %103, label %13

13:                                               ; preds = %2
  call void @llvm.lifetime.start.p0(i64 4, ptr %5) #10
  call void @llvm.lifetime.start.p0(i64 4, ptr %6) #10
  %14 = load ptr, ptr %4, align 8, !tbaa !9
  %15 = call i32 @lj_tab_len(ptr noundef %14)
  store i32 %15, ptr %6, align 4, !tbaa !17
  %16 = load i32, ptr %6, align 4, !tbaa !17
  %17 = icmp ne i32 %16, 0
  br i1 %17, label %19, label %18

18:                                               ; preds = %13
  store i32 1, ptr %7, align 4
  br label %100

19:                                               ; preds = %13
  %20 = load ptr, ptr %3, align 8, !tbaa !4
  %21 = load ptr, ptr %4, align 8, !tbaa !9
  %22 = load ptr, ptr %4, align 8, !tbaa !9
  %23 = getelementptr inbounds nuw %struct.GCtab, ptr %22, i32 0, i32 9
  %24 = load i32, ptr %23, align 8, !tbaa !18
  %25 = load i32, ptr %6, align 4, !tbaa !17
  %26 = icmp ne i32 %25, 0
  br i1 %26, label %27, label %39

27:                                               ; preds = %19
  %28 = load i32, ptr %6, align 4, !tbaa !17
  %29 = icmp eq i32 %28, 1
  br i1 %29, label %30, label %31

30:                                               ; preds = %27
  br label %37

31:                                               ; preds = %27
  %32 = load i32, ptr %6, align 4, !tbaa !17
  %33 = sub i32 %32, 1
  %34 = call i32 @llvm.ctlz.i32(i32 %33, i1 true)
  %35 = xor i32 %34, 31
  %36 = add i32 1, %35
  br label %37

37:                                               ; preds = %31, %30
  %38 = phi i32 [ 1, %30 ], [ %36, %31 ]
  br label %40

39:                                               ; preds = %19
  br label %40

40:                                               ; preds = %39, %37
  %41 = phi i32 [ %38, %37 ], [ 0, %39 ]
  call void @lj_tab_resize(ptr noundef %20, ptr noundef %21, i32 noundef %24, i32 noundef %41)
  store i32 1, ptr %5, align 4, !tbaa !17
  br label %42

42:                                               ; preds = %96, %40
  %43 = load i32, ptr %5, align 4, !tbaa !17
  %44 = load i32, ptr %6, align 4, !tbaa !17
  %45 = icmp ule i32 %43, %44
  br i1 %45, label %46, label %52

46:                                               ; preds = %42
  %47 = load i32, ptr %5, align 4, !tbaa !17
  %48 = load ptr, ptr %4, align 8, !tbaa !9
  %49 = getelementptr inbounds nuw %struct.GCtab, ptr %48, i32 0, i32 9
  %50 = load i32, ptr %49, align 8, !tbaa !18
  %51 = icmp ult i32 %47, %50
  br label %52

52:                                               ; preds = %46, %42
  %53 = phi i1 [ false, %42 ], [ %51, %46 ]
  br i1 %53, label %54, label %99

54:                                               ; preds = %52
  call void @llvm.lifetime.start.p0(i64 8, ptr %8) #10
  %55 = load ptr, ptr %4, align 8, !tbaa !9
  %56 = getelementptr inbounds nuw %struct.GCtab, ptr %55, i32 0, i32 5
  %57 = getelementptr inbounds nuw %struct.MRef, ptr %56, i32 0, i32 0
  %58 = load i64, ptr %57, align 8, !tbaa !19
  %59 = inttoptr i64 %58 to ptr
  %60 = load i32, ptr %5, align 4, !tbaa !17
  %61 = zext i32 %60 to i64
  %62 = getelementptr inbounds nuw %union.TValue, ptr %59, i64 %61
  store ptr %62, ptr %8, align 8, !tbaa !20
  %63 = load ptr, ptr %8, align 8, !tbaa !20
  %64 = load i64, ptr %63, align 8, !tbaa !22
  %65 = ashr i64 %64, 47
  %66 = trunc i64 %65 to i32
  %67 = icmp eq i32 %66, -5
  br i1 %67, label %68, label %86

68:                                               ; preds = %54
  %69 = load ptr, ptr %4, align 8, !tbaa !9
  %70 = load ptr, ptr %8, align 8, !tbaa !20
  %71 = getelementptr inbounds nuw %struct.GCRef, ptr %70, i32 0, i32 0
  %72 = load i64, ptr %71, align 8, !tbaa !22
  %73 = and i64 %72, 140737488355327
  %74 = inttoptr i64 %73 to ptr
  %75 = call ptr @lj_tab_getstr(ptr noundef %69, ptr noundef %74)
  %76 = icmp ne ptr %75, null
  br i1 %76, label %85, label %77

77:                                               ; preds = %68
  %78 = load i32, ptr %5, align 4, !tbaa !17
  %79 = sub i32 %78, 1
  %80 = zext i32 %79 to i64
  %81 = load ptr, ptr %3, align 8, !tbaa !4
  %82 = load ptr, ptr %4, align 8, !tbaa !9
  %83 = load ptr, ptr %8, align 8, !tbaa !20
  %84 = call ptr @lj_tab_newkey(ptr noundef %81, ptr noundef %82, ptr noundef %83)
  store i64 %80, ptr %84, align 8, !tbaa !22
  br label %85

85:                                               ; preds = %77, %68
  br label %95

86:                                               ; preds = %54
  %87 = load ptr, ptr %8, align 8, !tbaa !20
  %88 = load i64, ptr %87, align 8, !tbaa !22
  %89 = ashr i64 %88, 47
  %90 = trunc i64 %89 to i32
  %91 = icmp eq i32 %90, -2
  br i1 %91, label %94, label %92

92:                                               ; preds = %86
  %93 = load ptr, ptr %3, align 8, !tbaa !4
  call void @lj_err_caller(ptr noundef %93, i32 noundef 3792) #11
  unreachable

94:                                               ; preds = %86
  br label %95

95:                                               ; preds = %94, %85
  call void @llvm.lifetime.end.p0(i64 8, ptr %8) #10
  br label %96

96:                                               ; preds = %95
  %97 = load i32, ptr %5, align 4, !tbaa !17
  %98 = add i32 %97, 1
  store i32 %98, ptr %5, align 4, !tbaa !17
  br label %42, !llvm.loop !23

99:                                               ; preds = %52
  store i32 0, ptr %7, align 4
  br label %100

100:                                              ; preds = %99, %18
  call void @llvm.lifetime.end.p0(i64 4, ptr %6) #10
  call void @llvm.lifetime.end.p0(i64 4, ptr %5) #10
  %101 = load i32, ptr %7, align 4
  switch i32 %101, label %104 [
    i32 0, label %102
    i32 1, label %103
  ]

102:                                              ; preds = %100
  br label %103

103:                                              ; preds = %100, %102, %2
  ret void

104:                                              ; preds = %100
  unreachable
}